; Function Attrs: mustprogress uwtable
define noundef double @_ZNK8QuantLib28AndreasenHugeLocalVolAdapter12localVolImplEdd(ptr nocapture noundef nonnull readonly align 8 dereferenceable(88) %this, double noundef %t, double noundef %strike) unnamed_addr #6 align 2 {
entry:
  %localVol_ = getelementptr inbounds nuw i8, ptr %this, i64 72
  %0 = load ptr, ptr %localVol_, align 8, !tbaa !51
  %cmp.not.i = icmp eq ptr %0, null
  br i1 %cmp.not.i, label %_ZNK5boost10shared_ptrIN8QuantLib30AndreasenHugeVolatilityInterplEEptEv.exit, label %_ZNK5boost10shared_ptrIN8QuantLib30AndreasenHugeVolatilityInterplEEptEv.exit4, !prof !53

_ZNK5boost10shared_ptrIN8QuantLib30AndreasenHugeVolatilityInterplEEptEv.exit: ; preds = %entry
  tail call void @_ZN5boost16assertion_failedEPKcS1_S1_l(ptr noundef nonnull @.str.5, ptr noundef nonnull @__PRETTY_FUNCTION__._ZNK5boost10shared_ptrIN8QuantLib30AndreasenHugeVolatilityInterplEEptEv, ptr noundef nonnull @.str.6, i64 noundef 784)
  %.pre.i = load ptr, ptr %localVol_, align 8, !tbaa !51
  %cmp.not.i1 = icmp eq ptr %.pre.i, null
  br i1 %cmp.not.i1, label %cond.false.i2, label %_ZNK5boost10shared_ptrIN8QuantLib30AndreasenHugeVolatilityInterplEEptEv.exit4, !prof !54

cond.false.i2:                                    ; preds = %_ZNK5boost10shared_ptrIN8QuantLib30AndreasenHugeVolatilityInterplEEptEv.exit
  tail call void @_ZN5boost16assertion_failedEPKcS1_S1_l(ptr noundef nonnull @.str.5, ptr noundef nonnull @__PRETTY_FUNCTION__._ZNK5boost10shared_ptrIN8QuantLib30AndreasenHugeVolatilityInterplEEptEv, ptr noundef nonnull @.str.6, i64 noundef 784)
  %.pre.i3 = load ptr, ptr %localVol_, align 8, !tbaa !51
  br label %_ZNK5boost10shared_ptrIN8QuantLib30AndreasenHugeVolatilityInterplEEptEv.exit4

_ZNK5boost10shared_ptrIN8QuantLib30AndreasenHugeVolatilityInterplEEptEv.exit4: ; preds = %entry, %_ZNK5boost10shared_ptrIN8QuantLib30AndreasenHugeVolatilityInterplEEptEv.exit, %cond.false.i2
  %1 = phi ptr [ %.pre.i, %_ZNK5boost10shared_ptrIN8QuantLib30AndreasenHugeVolatilityInterplEEptEv.exit ], [ null, %cond.false.i2 ], [ %0, %entry ]
  %2 = phi ptr [ %.pre.i, %_ZNK5boost10shared_ptrIN8QuantLib30AndreasenHugeVolatilityInterplEEptEv.exit ], [ %.pre.i3, %cond.false.i2 ], [ %0, %entry ]
  %call4 = tail call noundef double @_ZNK8QuantLib30AndreasenHugeVolatilityInterpl9maxStrikeEv(ptr noundef nonnull align 8 dereferenceable(488) %2)
  %3 = load ptr, ptr %localVol_, align 8, !tbaa !51
  %cmp.not.i5 = icmp eq ptr %3, null
  br i1 %cmp.not.i5, label %cond.false.i6, label %_ZNK5boost10shared_ptrIN8QuantLib30AndreasenHugeVolatilityInterplEEptEv.exit8, !prof !53

cond.false.i6:                                    ; preds = %_ZNK5boost10shared_ptrIN8QuantLib30AndreasenHugeVolatilityInterplEEptEv.exit4
  tail call void @_ZN5boost16assertion_failedEPKcS1_S1_l(ptr noundef nonnull @.str.5, ptr noundef nonnull @__PRETTY_FUNCTION__._ZNK5boost10shared_ptrIN8QuantLib30AndreasenHugeVolatilityInterplEEptEv, ptr noundef nonnull @.str.6, i64 noundef 784)
  %.pre.i7 = load ptr, ptr %localVol_, align 8, !tbaa !51
  br label %_ZNK5boost10shared_ptrIN8QuantLib30AndreasenHugeVolatilityInterplEEptEv.exit8

_ZNK5boost10shared_ptrIN8QuantLib30AndreasenHugeVolatilityInterplEEptEv.exit8: ; preds = %_ZNK5boost10shared_ptrIN8QuantLib30AndreasenHugeVolatilityInterplEEptEv.exit4, %cond.false.i6
  %4 = phi ptr [ %3, %_ZNK5boost10shared_ptrIN8QuantLib30AndreasenHugeVolatilityInterplEEptEv.exit4 ], [ %.pre.i7, %cond.false.i6 ]
  %call8 = tail call noundef double @_ZNK8QuantLib30AndreasenHugeVolatilityInterpl9minStrikeEv(ptr noundef nonnull align 8 dereferenceable(488) %4)
  %cmp.i = fcmp olt double %call8, %strike
  %.sroa.speculated11 = select i1 %cmp.i, double %strike, double %call8
  %cmp.i9 = fcmp olt double %.sroa.speculated11, %call4
  %.sroa.speculated = select i1 %cmp.i9, double %.sroa.speculated11, double %call4
  %call11 = tail call noundef double @_ZNK8QuantLib30AndreasenHugeVolatilityInterpl8localVolEdd(ptr noundef nonnull align 8 dereferenceable(488) %1, double noundef %t, double noundef %.sroa.speculated)
  ret double %call11
}